target datalayout = "e-m:e-p270:32:32-p271:32:32-p272:64:64-i64:64-i128:128-f80:128-n8:16:32:64-S128"
target triple = "x86_64-pc-linux-gnu"

%struct.AVComplexDouble = type { double, double }
%struct.AVTXContext = type { i32, i32, ptr, ptr, ptr, ptr, [4 x ptr], i32, [4 x ptr], ptr, i32, i64, i32, float, double, ptr }

; Function Attrs: nounwind uwtable
define internal void @ff_tx_fft_pfa_double_c(ptr noundef %0, ptr noundef %1, ptr noundef %2, i64 noundef %3) #4 {
  %5 = alloca ptr, align 8
  %6 = alloca ptr, align 8
  %7 = alloca ptr, align 8
  %8 = alloca i64, align 8
  %9 = alloca i32, align 4
  %10 = alloca i32, align 4
  %11 = alloca i32, align 4
  %12 = alloca ptr, align 8
  %13 = alloca ptr, align 8
  %14 = alloca ptr, align 8
  %15 = alloca ptr, align 8
  %16 = alloca ptr, align 8
  %17 = alloca ptr, align 8
  %18 = alloca i32, align 4
  %19 = alloca i32, align 4
  %20 = alloca i32, align 4
  %21 = alloca i32, align 4
  %22 = alloca i32, align 4
  store ptr %0, ptr %5, align 8, !tbaa !17
  store ptr %1, ptr %6, align 8, !tbaa !8
  store ptr %2, ptr %7, align 8, !tbaa !8
  store i64 %3, ptr %8, align 8, !tbaa !30
  call void @llvm.lifetime.start.p0(i64 4, ptr %9) #10
  %23 = load ptr, ptr %5, align 8, !tbaa !17
  %24 = getelementptr inbounds nuw %struct.AVTXContext, ptr %23, i32 0, i32 5
  %25 = load ptr, ptr %24, align 8, !tbaa !67
  %26 = getelementptr inbounds %struct.AVTXContext, ptr %25, i64 0
  %27 = getelementptr inbounds nuw %struct.AVTXContext, ptr %26, i32 0, i32 0
  %28 = load i32, ptr %27, align 8, !tbaa !21
  store i32 %28, ptr %9, align 4, !tbaa !4
  call void @llvm.lifetime.start.p0(i64 4, ptr %10) #10
  %29 = load ptr, ptr %5, align 8, !tbaa !17
  %30 = getelementptr inbounds nuw %struct.AVTXContext, ptr %29, i32 0, i32 5
  %31 = load ptr, ptr %30, align 8, !tbaa !67
  %32 = getelementptr inbounds %struct.AVTXContext, ptr %31, i64 1
  %33 = getelementptr inbounds nuw %struct.AVTXContext, ptr %32, i32 0, i32 0
  %34 = load i32, ptr %33, align 8, !tbaa !21
  store i32 %34, ptr %10, align 4, !tbaa !4
  call void @llvm.lifetime.start.p0(i64 4, ptr %11) #10
  %35 = load ptr, ptr %5, align 8, !tbaa !17
  %36 = getelementptr inbounds nuw %struct.AVTXContext, ptr %35, i32 0, i32 0
  %37 = load i32, ptr %36, align 8, !tbaa !21
  store i32 %37, ptr %11, align 4, !tbaa !4
  call void @llvm.lifetime.start.p0(i64 8, ptr %12) #10
  %38 = load ptr, ptr %5, align 8, !tbaa !17
  %39 = getelementptr inbounds nuw %struct.AVTXContext, ptr %38, i32 0, i32 2
  %40 = load ptr, ptr %39, align 8, !tbaa !68
  store ptr %40, ptr %12, align 8, !tbaa !19
  call void @llvm.lifetime.start.p0(i64 8, ptr %13) #10
  %41 = load ptr, ptr %12, align 8, !tbaa !19
  %42 = load i32, ptr %11, align 4, !tbaa !4
  %43 = sext i32 %42 to i64
  %44 = getelementptr inbounds i32, ptr %41, i64 %43
  store ptr %44, ptr %13, align 8, !tbaa !19
  call void @llvm.lifetime.start.p0(i64 8, ptr %14) #10
  %45 = load ptr, ptr %5, align 8, !tbaa !17
  %46 = getelementptr inbounds nuw %struct.AVTXContext, ptr %45, i32 0, i32 5
  %47 = load ptr, ptr %46, align 8, !tbaa !67
  %48 = getelementptr inbounds %struct.AVTXContext, ptr %47, i64 1
  %49 = getelementptr inbounds nuw %struct.AVTXContext, ptr %48, i32 0, i32 2
  %50 = load ptr, ptr %49, align 8, !tbaa !68
  store ptr %50, ptr %14, align 8, !tbaa !19
  call void @llvm.lifetime.start.p0(i64 8, ptr %15) #10
  %51 = load ptr, ptr %5, align 8, !tbaa !17
  %52 = getelementptr inbounds nuw %struct.AVTXContext, ptr %51, i32 0, i32 5
  %53 = load ptr, ptr %52, align 8, !tbaa !67
  %54 = getelementptr inbounds %struct.AVTXContext, ptr %53, i64 1
  %55 = getelementptr inbounds nuw %struct.AVTXContext, ptr %54, i32 0, i32 11
  %56 = load i64, ptr %55, align 8, !tbaa !65
  %57 = and i64 %56, 1
  %58 = icmp ne i64 %57, 0
  br i1 %58, label %59, label %63

59:                                               ; preds = %4
  %60 = load ptr, ptr %5, align 8, !tbaa !17
  %61 = getelementptr inbounds nuw %struct.AVTXContext, ptr %60, i32 0, i32 4
  %62 = load ptr, ptr %61, align 8, !tbaa !66
  br label %67

63:                                               ; preds = %4
  %64 = load ptr, ptr %5, align 8, !tbaa !17
  %65 = getelementptr inbounds nuw %struct.AVTXContext, ptr %64, i32 0, i32 3
  %66 = load ptr, ptr %65, align 8, !tbaa !31
  br label %67

67:                                               ; preds = %63, %59
  %68 = phi ptr [ %62, %59 ], [ %66, %63 ]
  store ptr %68, ptr %15, align 8, !tbaa !59
  call void @llvm.lifetime.start.p0(i64 8, ptr %16) #10
  %69 = load ptr, ptr %7, align 8, !tbaa !8
  store ptr %69, ptr %16, align 8, !tbaa !59
  call void @llvm.lifetime.start.p0(i64 8, ptr %17) #10
  %70 = load ptr, ptr %6, align 8, !tbaa !8
  store ptr %70, ptr %17, align 8, !tbaa !59
  %71 = load i64, ptr %8, align 8, !tbaa !30
  %72 = udiv i64 %71, 16
  store i64 %72, ptr %8, align 8, !tbaa !30
  call void @llvm.lifetime.start.p0(i64 4, ptr %18) #10
  store i32 0, ptr %18, align 4, !tbaa !4
  br label %73

73:                                               ; preds = %131, %67
  %74 = load i32, ptr %18, align 4, !tbaa !4
  %75 = load i32, ptr %10, align 4, !tbaa !4
  %76 = icmp slt i32 %74, %75
  br i1 %76, label %78, label %77

77:                                               ; preds = %73
  store i32 2, ptr %19, align 4
  call void @llvm.lifetime.end.p0(i64 4, ptr %18) #10
  br label %134

78:                                               ; preds = %73
  call void @llvm.lifetime.start.p0(i64 4, ptr %20) #10
  store i32 0, ptr %20, align 4, !tbaa !4
  br label %79

79:                                               ; preds = %103, %78
  %80 = load i32, ptr %20, align 4, !tbaa !4
  %81 = load i32, ptr %9, align 4, !tbaa !4
  %82 = icmp slt i32 %80, %81
  br i1 %82, label %84, label %83

83:                                               ; preds = %79
  store i32 5, ptr %19, align 4
  call void @llvm.lifetime.end.p0(i64 4, ptr %20) #10
  br label %106

84:                                               ; preds = %79
  %85 = load ptr, ptr %5, align 8, !tbaa !17
  %86 = getelementptr inbounds nuw %struct.AVTXContext, ptr %85, i32 0, i32 3
  %87 = load ptr, ptr %86, align 8, !tbaa !31
  %88 = load i32, ptr %20, align 4, !tbaa !4
  %89 = sext i32 %88 to i64
  %90 = getelementptr inbounds %struct.AVComplexDouble, ptr %87, i64 %89
  %91 = load ptr, ptr %16, align 8, !tbaa !59
  %92 = load ptr, ptr %12, align 8, !tbaa !19
  %93 = load i32, ptr %18, align 4, !tbaa !4
  %94 = load i32, ptr %9, align 4, !tbaa !4
  %95 = mul nsw i32 %93, %94
  %96 = load i32, ptr %20, align 4, !tbaa !4
  %97 = add nsw i32 %95, %96
  %98 = sext i32 %97 to i64
  %99 = getelementptr inbounds i32, ptr %92, i64 %98
  %100 = load i32, ptr %99, align 4, !tbaa !4
  %101 = sext i32 %100 to i64
  %102 = getelementptr inbounds %struct.AVComplexDouble, ptr %91, i64 %101
  call void @llvm.memcpy.p0.p0.i64(ptr align 8 %90, ptr align 8 %102, i64 16, i1 false), !tbaa.struct !35
  br label %103

103:                                              ; preds = %84
  %104 = load i32, ptr %20, align 4, !tbaa !4
  %105 = add nsw i32 %104, 1
  store i32 %105, ptr %20, align 4, !tbaa !4
  br label %79, !llvm.loop !74

106:                                              ; preds = %83
  %107 = load ptr, ptr %5, align 8, !tbaa !17
  %108 = getelementptr inbounds nuw %struct.AVTXContext, ptr %107, i32 0, i32 6
  %109 = getelementptr inbounds [4 x ptr], ptr %108, i64 0, i64 0
  %110 = load ptr, ptr %109, align 8, !tbaa !8
  %111 = load ptr, ptr %5, align 8, !tbaa !17
  %112 = getelementptr inbounds nuw %struct.AVTXContext, ptr %111, i32 0, i32 5
  %113 = load ptr, ptr %112, align 8, !tbaa !67
  %114 = getelementptr inbounds %struct.AVTXContext, ptr %113, i64 0
  %115 = load ptr, ptr %5, align 8, !tbaa !17
  %116 = getelementptr inbounds nuw %struct.AVTXContext, ptr %115, i32 0, i32 4
  %117 = load ptr, ptr %116, align 8, !tbaa !66
  %118 = load ptr, ptr %14, align 8, !tbaa !19
  %119 = load i32, ptr %18, align 4, !tbaa !4
  %120 = sext i32 %119 to i64
  %121 = getelementptr inbounds i32, ptr %118, i64 %120
  %122 = load i32, ptr %121, align 4, !tbaa !4
  %123 = sext i32 %122 to i64
  %124 = getelementptr inbounds %struct.AVComplexDouble, ptr %117, i64 %123
  %125 = load ptr, ptr %5, align 8, !tbaa !17
  %126 = getelementptr inbounds nuw %struct.AVTXContext, ptr %125, i32 0, i32 3
  %127 = load ptr, ptr %126, align 8, !tbaa !31
  %128 = load i32, ptr %10, align 4, !tbaa !4
  %129 = sext i32 %128 to i64
  %130 = mul i64 %129, 16
  call void %110(ptr noundef %114, ptr noundef %124, ptr noundef %127, i64 noundef %130)
  br label %131

131:                                              ; preds = %106
  %132 = load i32, ptr %18, align 4, !tbaa !4
  %133 = add nsw i32 %132, 1
  store i32 %133, ptr %18, align 4, !tbaa !4
  br label %73, !llvm.loop !75

134:                                              ; preds = %77
  call void @llvm.lifetime.start.p0(i64 4, ptr %21) #10
  store i32 0, ptr %21, align 4, !tbaa !4
  br label %135

135:                                              ; preds = %163, %134
  %136 = load i32, ptr %21, align 4, !tbaa !4
  %137 = load i32, ptr %9, align 4, !tbaa !4
  %138 = icmp slt i32 %136, %137
  br i1 %138, label %140, label %139

139:                                              ; preds = %135
  store i32 8, ptr %19, align 4
  call void @llvm.lifetime.end.p0(i64 4, ptr %21) #10
  br label %166

140:                                              ; preds = %135
  %141 = load ptr, ptr %5, align 8, !tbaa !17
  %142 = getelementptr inbounds nuw %struct.AVTXContext, ptr %141, i32 0, i32 6
  %143 = getelementptr inbounds [4 x ptr], ptr %142, i64 0, i64 1
  %144 = load ptr, ptr %143, align 8, !tbaa !8
  %145 = load ptr, ptr %5, align 8, !tbaa !17
  %146 = getelementptr inbounds nuw %struct.AVTXContext, ptr %145, i32 0, i32 5
  %147 = load ptr, ptr %146, align 8, !tbaa !67
  %148 = getelementptr inbounds %struct.AVTXContext, ptr %147, i64 1
  %149 = load ptr, ptr %15, align 8, !tbaa !59
  %150 = load i32, ptr %10, align 4, !tbaa !4
  %151 = load i32, ptr %21, align 4, !tbaa !4
  %152 = mul nsw i32 %150, %151
  %153 = sext i32 %152 to i64
  %154 = getelementptr inbounds %struct.AVComplexDouble, ptr %149, i64 %153
  %155 = load ptr, ptr %5, align 8, !tbaa !17
  %156 = getelementptr inbounds nuw %struct.AVTXContext, ptr %155, i32 0, i32 4
  %157 = load ptr, ptr %156, align 8, !tbaa !66
  %158 = load i32, ptr %10, align 4, !tbaa !4
  %159 = load i32, ptr %21, align 4, !tbaa !4
  %160 = mul nsw i32 %158, %159
  %161 = sext i32 %160 to i64
  %162 = getelementptr inbounds %struct.AVComplexDouble, ptr %157, i64 %161
  call void %144(ptr noundef %148, ptr noundef %154, ptr noundef %162, i64 noundef 16)
  br label %163

163:                                              ; preds = %140
  %164 = load i32, ptr %21, align 4, !tbaa !4
  %165 = add nsw i32 %164, 1
  store i32 %165, ptr %21, align 4, !tbaa !4
  br label %135, !llvm.loop !76

166:                                              ; preds = %139
  call void @llvm.lifetime.start.p0(i64 4, ptr %22) #10
  store i32 0, ptr %22, align 4, !tbaa !4
  br label %167

167:                                              ; preds = %187, %166
  %168 = load i32, ptr %22, align 4, !tbaa !4
  %169 = load i32, ptr %11, align 4, !tbaa !4
  %170 = icmp slt i32 %168, %169
  br i1 %170, label %172, label %171

171:                                              ; preds = %167
  store i32 11, ptr %19, align 4
  call void @llvm.lifetime.end.p0(i64 4, ptr %22) #10
  br label %190

172:                                              ; preds = %167
  %173 = load ptr, ptr %17, align 8, !tbaa !59
  %174 = load i32, ptr %22, align 4, !tbaa !4
  %175 = sext i32 %174 to i64
  %176 = load i64, ptr %8, align 8, !tbaa !30
  %177 = mul nsw i64 %175, %176
  %178 = getelementptr inbounds %struct.AVComplexDouble, ptr %173, i64 %177
  %179 = load ptr, ptr %15, align 8, !tbaa !59
  %180 = load ptr, ptr %13, align 8, !tbaa !19
  %181 = load i32, ptr %22, align 4, !tbaa !4
  %182 = sext i32 %181 to i64
  %183 = getelementptr inbounds i32, ptr %180, i64 %182
  %184 = load i32, ptr %183, align 4, !tbaa !4
  %185 = sext i32 %184 to i64
  %186 = getelementptr inbounds %struct.AVComplexDouble, ptr %179, i64 %185
  call void @llvm.memcpy.p0.p0.i64(ptr align 8 %178, ptr align 8 %186, i64 16, i1 false), !tbaa.struct !35
  br label %187

187:                                              ; preds = %172
  %188 = load i32, ptr %22, align 4, !tbaa !4
  %189 = add nsw i32 %188, 1
  store i32 %189, ptr %22, align 4, !tbaa !4
  br label %167, !llvm.loop !77

190:                                              ; preds = %171
  call void @llvm.lifetime.end.p0(i64 8, ptr %17) #10
  call void @llvm.lifetime.end.p0(i64 8, ptr %16) #10
  call void @llvm.lifetime.end.p0(i64 8, ptr %15) #10
  call void @llvm.lifetime.end.p0(i64 8, ptr %14) #10
  call void @llvm.lifetime.end.p0(i64 8, ptr %13) #10
  call void @llvm.lifetime.end.p0(i64 8, ptr %12) #10
  call void @llvm.lifetime.end.p0(i64 4, ptr %11) #10
  call void @llvm.lifetime.end.p0(i64 4, ptr %10) #10
  call void @llvm.lifetime.end.p0(i64 4, ptr %9) #10
  ret void
}