; Function Attrs: nounwind uwtable
define internal void @ff_tx_fft_pfa_double_c(ptr noundef readonly captures(none) %0, ptr noundef writeonly captures(none) %1, ptr noundef readonly captures(none) %2, i64 noundef %3) #3 {
  %5 = getelementptr inbounds nuw i8, ptr %0, i64 32
  %6 = load ptr, ptr %5, align 8, !tbaa !57
  %7 = load i32, ptr %6, align 8, !tbaa !16
  %8 = getelementptr inbounds nuw i8, ptr %6, i64 160
  %9 = load i32, ptr %8, align 8, !tbaa !16
  %10 = load i32, ptr %0, align 8, !tbaa !16
  %11 = getelementptr inbounds nuw i8, ptr %0, i64 8
  %12 = load ptr, ptr %11, align 8, !tbaa !58
  %13 = sext i32 %10 to i64
  %14 = getelementptr inbounds i32, ptr %12, i64 %13
  %15 = getelementptr inbounds nuw i8, ptr %6, i64 168
  %16 = load ptr, ptr %15, align 8, !tbaa !58
  %17 = getelementptr inbounds nuw i8, ptr %6, i64 288
  %18 = load i64, ptr %17, align 8, !tbaa !55
  %19 = and i64 %18, 1
  %.not = icmp eq i64 %19, 0
  %20 = getelementptr inbounds nuw i8, ptr %0, i64 24
  %21 = getelementptr inbounds nuw i8, ptr %0, i64 16
  %.in = select i1 %.not, ptr %21, ptr %20
  %22 = load ptr, ptr %.in, align 8, !tbaa !64
  %23 = lshr i64 %3, 4
  %24 = icmp sgt i32 %9, 0
  br i1 %24, label %.preheader58.lr.ph, label %.preheader57

.preheader58.lr.ph:                               ; preds = %4
  %25 = icmp sgt i32 %7, 0
  %26 = getelementptr inbounds nuw i8, ptr %0, i64 40
  %27 = zext nneg i32 %9 to i64
  %28 = shl nuw nsw i64 %27, 4
  br i1 %25, label %.preheader58.us.preheader, label %.preheader58

.preheader58.us.preheader:                        ; preds = %.preheader58.lr.ph
  %29 = zext nneg i32 %7 to i64
  br label %.preheader58.us

.preheader58.us:                                  ; preds = %.preheader58.us.preheader, %._crit_edge.us
  %indvars.iv71 = phi i64 [ 0, %.preheader58.us.preheader ], [ %indvars.iv.next72, %._crit_edge.us ]
  %30 = mul nuw nsw i64 %indvars.iv71, %29
  %invariant.gep = getelementptr inbounds nuw i32, ptr %12, i64 %30
  br label %31

31:                                               ; preds = %.preheader58.us, %31
  %indvars.iv66 = phi i64 [ 0, %.preheader58.us ], [ %indvars.iv.next67, %31 ]
  %32 = load ptr, ptr %21, align 8, !tbaa !26
  %33 = getelementptr inbounds nuw %struct.AVComplexDouble, ptr %32, i64 %indvars.iv66
  %gep = getelementptr inbounds nuw i32, ptr %invariant.gep, i64 %indvars.iv66
  %34 = load i32, ptr %gep, align 4, !tbaa !10
  %35 = sext i32 %34 to i64
  %36 = getelementptr inbounds %struct.AVComplexDouble, ptr %2, i64 %35
  tail call void @llvm.memcpy.p0.p0.i64(ptr noundef nonnull align 8 dereferenceable(16) %33, ptr noundef nonnull align 8 dereferenceable(16) %36, i64 16, i1 false), !tbaa.struct !29
  %indvars.iv.next67 = add nuw nsw i64 %indvars.iv66, 1
  %exitcond70.not = icmp eq i64 %indvars.iv.next67, %29
  br i1 %exitcond70.not, label %._crit_edge.us, label %31, !llvm.loop !65

._crit_edge.us:                                   ; preds = %31
  %37 = load ptr, ptr %26, align 8, !tbaa !4
  %38 = load ptr, ptr %5, align 8, !tbaa !57
  %39 = load ptr, ptr %20, align 8, !tbaa !56
  %40 = getelementptr inbounds nuw i32, ptr %16, i64 %indvars.iv71
  %41 = load i32, ptr %40, align 4, !tbaa !10
  %42 = sext i32 %41 to i64
  %43 = getelementptr inbounds %struct.AVComplexDouble, ptr %39, i64 %42
  %44 = load ptr, ptr %21, align 8, !tbaa !26
  tail call void %37(ptr noundef %38, ptr noundef %43, ptr noundef %44, i64 noundef %28) #16
  %indvars.iv.next72 = add nuw nsw i64 %indvars.iv71, 1
  %exitcond75.not = icmp eq i64 %indvars.iv.next72, %27
  br i1 %exitcond75.not, label %.preheader57, label %.preheader58.us, !llvm.loop !66

.preheader58:                                     ; preds = %.preheader58.lr.ph, %.preheader58
  %indvars.iv = phi i64 [ %indvars.iv.next, %.preheader58 ], [ 0, %.preheader58.lr.ph ]
  %45 = load ptr, ptr %26, align 8, !tbaa !4
  %46 = load ptr, ptr %5, align 8, !tbaa !57
  %47 = load ptr, ptr %20, align 8, !tbaa !56
  %48 = getelementptr inbounds nuw i32, ptr %16, i64 %indvars.iv
  %49 = load i32, ptr %48, align 4, !tbaa !10
  %50 = sext i32 %49 to i64
  %51 = getelementptr inbounds %struct.AVComplexDouble, ptr %47, i64 %50
  %52 = load ptr, ptr %21, align 8, !tbaa !26
  tail call void %45(ptr noundef %46, ptr noundef %51, ptr noundef %52, i64 noundef %28) #16
  %indvars.iv.next = add nuw nsw i64 %indvars.iv, 1
  %exitcond.not = icmp eq i64 %indvars.iv.next, %27
  br i1 %exitcond.not, label %.preheader, label %.preheader58, !llvm.loop !66

.preheader57:                                     ; preds = %._crit_edge.us, %4
  %53 = icmp sgt i32 %7, 0
  br i1 %53, label %.lr.ph, label %.preheader

.lr.ph:                                           ; preds = %.preheader57
  %54 = getelementptr inbounds nuw i8, ptr %0, i64 48
  %55 = sext i32 %9 to i64
  %wide.trip.count79 = zext nneg i32 %7 to i64
  br label %57

.preheader:                                       ; preds = %.preheader58, %57, %.preheader57
  %56 = icmp sgt i32 %10, 0
  br i1 %56, label %.lr.ph63.preheader, label %._crit_edge

.lr.ph63.preheader:                               ; preds = %.preheader
  %wide.trip.count84 = zext nneg i32 %10 to i64
  br label %.lr.ph63

57:                                               ; preds = %.lr.ph, %57
  %indvars.iv76 = phi i64 [ 0, %.lr.ph ], [ %indvars.iv.next77, %57 ]
  %58 = load ptr, ptr %54, align 8, !tbaa !4
  %59 = load ptr, ptr %5, align 8, !tbaa !57
  %60 = getelementptr inbounds nuw i8, ptr %59, i64 160
  %61 = mul nsw i64 %indvars.iv76, %55
  %62 = getelementptr inbounds %struct.AVComplexDouble, ptr %22, i64 %61
  %63 = load ptr, ptr %20, align 8, !tbaa !56
  %64 = getelementptr inbounds %struct.AVComplexDouble, ptr %63, i64 %61
  tail call void %58(ptr noundef nonnull %60, ptr noundef %62, ptr noundef %64, i64 noundef 16) #16
  %indvars.iv.next77 = add nuw nsw i64 %indvars.iv76, 1
  %exitcond80.not = icmp eq i64 %indvars.iv.next77, %wide.trip.count79
  br i1 %exitcond80.not, label %.preheader, label %57, !llvm.loop !67

._crit_edge:                                      ; preds = %.lr.ph63, %.preheader
  ret void

.lr.ph63:                                         ; preds = %.lr.ph63.preheader, %.lr.ph63
  %indvars.iv81 = phi i64 [ 0, %.lr.ph63.preheader ], [ %indvars.iv.next82, %.lr.ph63 ]
  %65 = mul nuw nsw i64 %23, %indvars.iv81
  %66 = getelementptr inbounds nuw %struct.AVComplexDouble, ptr %1, i64 %65
  %67 = getelementptr inbounds nuw i32, ptr %14, i64 %indvars.iv81
  %68 = load i32, ptr %67, align 4, !tbaa !10
  %69 = sext i32 %68 to i64
  %70 = getelementptr inbounds %struct.AVComplexDouble, ptr %22, i64 %69
  tail call void @llvm.memcpy.p0.p0.i64(ptr noundef nonnull align 8 dereferenceable(16) %66, ptr noundef nonnull align 8 dereferenceable(16) %70, i64 16, i1 false), !tbaa.struct !29
  %indvars.iv.next82 = add nuw nsw i64 %indvars.iv81, 1
  %exitcond85.not = icmp eq i64 %indvars.iv.next82, %wide.trip.count84
  br i1 %exitcond85.not, label %._crit_edge, label %.lr.ph63, !llvm.loop !68
}